; Function Attrs: nounwind uwtable
define dso_local zeroext i1 @predicate_implied_by(ptr noundef %0, ptr noundef %1, i1 noundef zeroext %2) local_unnamed_addr #0 {
  %4 = icmp eq ptr %0, null
  br i1 %4, label %21, label %5

5:                                                ; preds = %3
  %6 = icmp eq ptr %1, null
  br i1 %6, label %21, label %list_length.exit

list_length.exit:                                 ; preds = %5
  %7 = getelementptr inbounds nuw i8, ptr %0, i64 4
  %8 = load i32, ptr %7, align 4
  %9 = icmp eq i32 %8, 1
  br i1 %9, label %10, label %list_length.exit17

10:                                               ; preds = %list_length.exit
  %11 = getelementptr i8, ptr %0, i64 16
  %.val = load ptr, ptr %11, align 8
  %12 = load ptr, ptr %.val, align 8
  br label %list_length.exit17

list_length.exit17:                               ; preds = %list_length.exit, %10
  %.011 = phi ptr [ %12, %10 ], [ %0, %list_length.exit ]
  %13 = getelementptr inbounds nuw i8, ptr %1, i64 4
  %14 = load i32, ptr %13, align 4
  %15 = icmp eq i32 %14, 1
  br i1 %15, label %16, label %19

16:                                               ; preds = %list_length.exit17
  %17 = getelementptr i8, ptr %1, i64 16
  %.val15 = load ptr, ptr %17, align 8
  %18 = load ptr, ptr %.val15, align 8
  br label %19

19:                                               ; preds = %list_length.exit17, %16
  %.0 = phi ptr [ %18, %16 ], [ %1, %list_length.exit17 ]
  %20 = tail call fastcc zeroext i1 @predicate_implied_by_recurse(ptr noundef %.0, ptr noundef %.011, i1 noundef zeroext %2)
  br label %21

21:                                               ; preds = %5, %3, %19
  %.012 = phi i1 [ %20, %19 ], [ true, %3 ], [ false, %5 ]
  ret i1 %.012
}